; Function Attrs: mustprogress nofree norecurse nosync nounwind willreturn memory(argmem: write) uwtable
define dso_local void @put_be24(ptr noundef writeonly captures(none) initializes((0, 3)) %0, i32 noundef %1) local_unnamed_addr #8 {
  %3 = lshr i32 %1, 16
  %4 = trunc i32 %3 to i8
  store i8 %4, ptr %0, align 1, !tbaa !14
  %5 = lshr i32 %1, 8
  %6 = trunc i32 %5 to i8
  %7 = getelementptr inbounds nuw i8, ptr %0, i64 1
  store i8 %6, ptr %7, align 1, !tbaa !14
  %8 = trunc i32 %1 to i8
  %9 = getelementptr inbounds nuw i8, ptr %0, i64 2
  store i8 %8, ptr %9, align 1, !tbaa !14
  ret void
}